; Function Attrs: mustprogress nofree norecurse nosync nounwind willreturn memory(argmem: write) uwtable
define void @_ZN6casadi5SliceC2Exii(ptr nocapture noundef nonnull writeonly align 8 dereferenceable(24) %0, i64 noundef %1, i32 noundef %2, i32 noundef %3) unnamed_addr #3 align 2 {
  store i64 %1, ptr %0, align 8
  %5 = getelementptr inbounds i8, ptr %0, i64 8
  %6 = sext i32 %2 to i64
  store i64 %6, ptr %5, align 8
  %7 = getelementptr inbounds i8, ptr %0, i64 16
  %8 = sext i32 %3 to i64
  store i64 %8, ptr %7, align 8
  ret void
}